; ModuleID = '55/210.c'
source_filename = "55/210.c"
target datalayout = "e-m:e-p270:32:32-p271:32:32-p272:64:64-i64:64-f80:128-n8:16:32:64-S128"
target triple = "x86_64-pc-linux-gnu"

@.str = private unnamed_addr constant [7 x i8] c"%d%s%d\00", align 1
@.str.1 = private unnamed_addr constant [2 x i8] c"0\00", align 1
@.str.2 = private unnamed_addr constant [3 x i8] c"%c\00", align 1

; Function Attrs: noinline nounwind uwtable
define dso_local i64 @f(i32* %0, i32 %1, i32 %2) #0 {
  %4 = alloca i32*, align 8
  %5 = alloca i32, align 4
  %6 = alloca i32, align 4
  %7 = alloca i32, align 4
  %8 = alloca i32, align 4
  store i32* %0, i32** %4, align 8
  store i32 %1, i32* %5, align 4
  store i32 %2, i32* %6, align 4
  store i32 0, i32* %8, align 4
  store i32 0, i32* %7, align 4
  br label %9

9:                                                ; preds = %23, %3
  %10 = load i32, i32* %7, align 4
  %11 = load i32, i32* %6, align 4
  %12 = icmp slt i32 %10, %11
  br i1 %12, label %13, label %26

13:                                               ; preds = %9
  %14 = load i32, i32* %8, align 4
  %15 = load i32, i32* %5, align 4
  %16 = mul nsw i32 %14, %15
  %17 = load i32*, i32** %4, align 8
  %18 = load i32, i32* %7, align 4
  %19 = sext i32 %18 to i64
  %20 = getelementptr inbounds i32, i32* %17, i64 %19
  %21 = load i32, i32* %20, align 4
  %22 = add nsw i32 %16, %21
  store i32 %22, i32* %8, align 4
  br label %23

23:                                               ; preds = %13
  %24 = load i32, i32* %7, align 4
  %25 = add nsw i32 %24, 1
  store i32 %25, i32* %7, align 4
  br label %9

26:                                               ; preds = %9
  %27 = load i32, i32* %8, align 4
  %28 = sext i32 %27 to i64
  ret i64 %28
}

; Function Attrs: noinline nounwind uwtable
define dso_local void @main() #0 {
  %1 = alloca i32, align 4
  %2 = alloca i32, align 4
  %3 = alloca [80 x i32], align 16
  %4 = alloca i32, align 4
  %5 = alloca i32, align 4
  %6 = alloca i64, align 8
  %7 = alloca [80 x i8], align 16
  %8 = getelementptr inbounds [80 x i8], [80 x i8]* %7, i64 0, i64 0
  %9 = call i32 (i8*, ...) @__isoc99_scanf(i8* getelementptr inbounds ([7 x i8], [7 x i8]* @.str, i64 0, i64 0), i32* %1, i8* %8, i32* %2)
  store i32 0, i32* %4, align 4
  br label %10

10:                                               ; preds = %93, %0
  %11 = load i32, i32* %4, align 4
  %12 = sext i32 %11 to i64
  %13 = getelementptr inbounds [80 x i8], [80 x i8]* %7, i64 0, i64 0
  %14 = call i64 @strlen(i8* %13) #3
  %15 = icmp ult i64 %12, %14
  br i1 %15, label %16, label %96

16:                                               ; preds = %10
  %17 = load i32, i32* %4, align 4
  %18 = sext i32 %17 to i64
  %19 = getelementptr inbounds [80 x i8], [80 x i8]* %7, i64 0, i64 %18
  %20 = load i8, i8* %19, align 1
  %21 = sext i8 %20 to i32
  %22 = icmp sge i32 %21, 48
  br i1 %22, label %23, label %40

23:                                               ; preds = %16
  %24 = load i32, i32* %4, align 4
  %25 = sext i32 %24 to i64
  %26 = getelementptr inbounds [80 x i8], [80 x i8]* %7, i64 0, i64 %25
  %27 = load i8, i8* %26, align 1
  %28 = sext i8 %27 to i32
  %29 = icmp sle i32 %28, 57
  br i1 %29, label %30, label %40

30:                                               ; preds = %23
  %31 = load i32, i32* %4, align 4
  %32 = sext i32 %31 to i64
  %33 = getelementptr inbounds [80 x i8], [80 x i8]* %7, i64 0, i64 %32
  %34 = load i8, i8* %33, align 1
  %35 = sext i8 %34 to i32
  %36 = sub nsw i32 %35, 48
  %37 = load i32, i32* %4, align 4
  %38 = sext i32 %37 to i64
  %39 = getelementptr inbounds [80 x i32], [80 x i32]* %3, i64 0, i64 %38
  store i32 %36, i32* %39, align 4
  br label %92

40:                                               ; preds = %23, %16
  %41 = load i32, i32* %4, align 4
  %42 = sext i32 %41 to i64
  %43 = getelementptr inbounds [80 x i8], [80 x i8]* %7, i64 0, i64 %42
  %44 = load i8, i8* %43, align 1
  %45 = sext i8 %44 to i32
  %46 = icmp sge i32 %45, 97
  br i1 %46, label %47, label %65

47:                                               ; preds = %40
  %48 = load i32, i32* %4, align 4
  %49 = sext i32 %48 to i64
  %50 = getelementptr inbounds [80 x i8], [80 x i8]* %7, i64 0, i64 %49
  %51 = load i8, i8* %50, align 1
  %52 = sext i8 %51 to i32
  %53 = icmp sle i32 %52, 122
  br i1 %53, label %54, label %65

54:                                               ; preds = %47
  %55 = load i32, i32* %4, align 4
  %56 = sext i32 %55 to i64
  %57 = getelementptr inbounds [80 x i8], [80 x i8]* %7, i64 0, i64 %56
  %58 = load i8, i8* %57, align 1
  %59 = sext i8 %58 to i32
  %60 = sub nsw i32 %59, 97
  %61 = add nsw i32 %60, 10
  %62 = load i32, i32* %4, align 4
  %63 = sext i32 %62 to i64
  %64 = getelementptr inbounds [80 x i32], [80 x i32]* %3, i64 0, i64 %63
  store i32 %61, i32* %64, align 4
  br label %91

65:                                               ; preds = %47, %40
  %66 = load i32, i32* %4, align 4
  %67 = sext i32 %66 to i64
  %68 = getelementptr inbounds [80 x i8], [80 x i8]* %7, i64 0, i64 %67
  %69 = load i8, i8* %68, align 1
  %70 = sext i8 %69 to i32
  %71 = icmp sge i32 %70, 65
  br i1 %71, label %72, label %90

72:                                               ; preds = %65
  %73 = load i32, i32* %4, align 4
  %74 = sext i32 %73 to i64
  %75 = getelementptr inbounds [80 x i8], [80 x i8]* %7, i64 0, i64 %74
  %76 = load i8, i8* %75, align 1
  %77 = sext i8 %76 to i32
  %78 = icmp sle i32 %77, 90
  br i1 %78, label %79, label %90

79:                                               ; preds = %72
  %80 = load i32, i32* %4, align 4
  %81 = sext i32 %80 to i64
  %82 = getelementptr inbounds [80 x i8], [80 x i8]* %7, i64 0, i64 %81
  %83 = load i8, i8* %82, align 1
  %84 = sext i8 %83 to i32
  %85 = sub nsw i32 %84, 65
  %86 = add nsw i32 %85, 10
  %87 = load i32, i32* %4, align 4
  %88 = sext i32 %87 to i64
  %89 = getelementptr inbounds [80 x i32], [80 x i32]* %3, i64 0, i64 %88
  store i32 %86, i32* %89, align 4
  br label %90

90:                                               ; preds = %79, %72, %65
  br label %91

91:                                               ; preds = %90, %54
  br label %92

92:                                               ; preds = %91, %30
  br label %93

93:                                               ; preds = %92
  %94 = load i32, i32* %4, align 4
  %95 = add nsw i32 %94, 1
  store i32 %95, i32* %4, align 4
  br label %10

96:                                               ; preds = %10
  %97 = getelementptr inbounds [80 x i32], [80 x i32]* %3, i64 0, i64 0
  %98 = load i32, i32* %1, align 4
  %99 = getelementptr inbounds [80 x i8], [80 x i8]* %7, i64 0, i64 0
  %100 = call i64 @strlen(i8* %99) #3
  %101 = trunc i64 %100 to i32
  %102 = call i64 @f(i32* %97, i32 %98, i32 %101)
  store i64 %102, i64* %6, align 8
  %103 = load i64, i64* %6, align 8
  %104 = icmp eq i64 %103, 0
  br i1 %104, label %105, label %107

105:                                              ; preds = %96
  %106 = call i32 (i8*, ...) @printf(i8* getelementptr inbounds ([2 x i8], [2 x i8]* @.str.1, i64 0, i64 0))
  br label %200

107:                                              ; preds = %96
  store i32 0, i32* %4, align 4
  br label %108

108:                                              ; preds = %130, %107
  %109 = load i64, i64* %6, align 8
  %110 = icmp ne i64 %109, 0
  br i1 %110, label %111, label %133

111:                                              ; preds = %108
  %112 = load i64, i64* %6, align 8
  %113 = load i32, i32* %2, align 4
  %114 = sext i32 %113 to i64
  %115 = srem i64 %112, %114
  %116 = trunc i64 %115 to i32
  %117 = load i32, i32* %4, align 4
  %118 = sext i32 %117 to i64
  %119 = getelementptr inbounds [80 x i32], [80 x i32]* %3, i64 0, i64 %118
  store i32 %116, i32* %119, align 4
  %120 = load i64, i64* %6, align 8
  %121 = load i32, i32* %4, align 4
  %122 = sext i32 %121 to i64
  %123 = getelementptr inbounds [80 x i32], [80 x i32]* %3, i64 0, i64 %122
  %124 = load i32, i32* %123, align 4
  %125 = sext i32 %124 to i64
  %126 = sub nsw i64 %120, %125
  %127 = load i32, i32* %2, align 4
  %128 = sext i32 %127 to i64
  %129 = sdiv i64 %126, %128
  store i64 %129, i64* %6, align 8
  br label %130

130:                                              ; preds = %111
  %131 = load i32, i32* %4, align 4
  %132 = add nsw i32 %131, 1
  store i32 %132, i32* %4, align 4
  br label %108

133:                                              ; preds = %108
  %134 = load i32, i32* %4, align 4
  store i32 %134, i32* %5, align 4
  store i32 0, i32* %4, align 4
  br label %135

135:                                              ; preds = %180, %133
  %136 = load i32, i32* %4, align 4
  %137 = load i32, i32* %5, align 4
  %138 = icmp slt i32 %136, %137
  br i1 %138, label %139, label %183

139:                                              ; preds = %135
  %140 = load i32, i32* %4, align 4
  %141 = sext i32 %140 to i64
  %142 = getelementptr inbounds [80 x i32], [80 x i32]* %3, i64 0, i64 %141
  %143 = load i32, i32* %142, align 4
  %144 = icmp sge i32 %143, 0
  br i1 %144, label %145, label %161

145:                                              ; preds = %139
  %146 = load i32, i32* %4, align 4
  %147 = sext i32 %146 to i64
  %148 = getelementptr inbounds [80 x i32], [80 x i32]* %3, i64 0, i64 %147
  %149 = load i32, i32* %148, align 4
  %150 = icmp sle i32 %149, 9
  br i1 %150, label %151, label %161

151:                                              ; preds = %145
  %152 = load i32, i32* %4, align 4
  %153 = sext i32 %152 to i64
  %154 = getelementptr inbounds [80 x i32], [80 x i32]* %3, i64 0, i64 %153
  %155 = load i32, i32* %154, align 4
  %156 = add nsw i32 48, %155
  %157 = trunc i32 %156 to i8
  %158 = load i32, i32* %4, align 4
  %159 = sext i32 %158 to i64
  %160 = getelementptr inbounds [80 x i8], [80 x i8]* %7, i64 0, i64 %159
  store i8 %157, i8* %160, align 1
  br label %179

161:                                              ; preds = %145, %139
  %162 = load i32, i32* %4, align 4
  %163 = sext i32 %162 to i64
  %164 = getelementptr inbounds [80 x i32], [80 x i32]* %3, i64 0, i64 %163
  %165 = load i32, i32* %164, align 4
  %166 = icmp sgt i32 %165, 9
  br i1 %166, label %167, label %178

167:                                              ; preds = %161
  %168 = load i32, i32* %4, align 4
  %169 = sext i32 %168 to i64
  %170 = getelementptr inbounds [80 x i32], [80 x i32]* %3, i64 0, i64 %169
  %171 = load i32, i32* %170, align 4
  %172 = sub nsw i32 %171, 10
  %173 = add nsw i32 %172, 65
  %174 = trunc i32 %173 to i8
  %175 = load i32, i32* %4, align 4
  %176 = sext i32 %175 to i64
  %177 = getelementptr inbounds [80 x i8], [80 x i8]* %7, i64 0, i64 %176
  store i8 %174, i8* %177, align 1
  br label %178

178:                                              ; preds = %167, %161
  br label %179

179:                                              ; preds = %178, %151
  br label %180

180:                                              ; preds = %179
  %181 = load i32, i32* %4, align 4
  %182 = add nsw i32 %181, 1
  store i32 %182, i32* %4, align 4
  br label %135

183:                                              ; preds = %135
  %184 = load i32, i32* %5, align 4
  %185 = sub nsw i32 %184, 1
  store i32 %185, i32* %4, align 4
  br label %186

186:                                              ; preds = %196, %183
  %187 = load i32, i32* %4, align 4
  %188 = icmp sge i32 %187, 0
  br i1 %188, label %189, label %199

189:                                              ; preds = %186
  %190 = load i32, i32* %4, align 4
  %191 = sext i32 %190 to i64
  %192 = getelementptr inbounds [80 x i8], [80 x i8]* %7, i64 0, i64 %191
  %193 = load i8, i8* %192, align 1
  %194 = sext i8 %193 to i32
  %195 = call i32 (i8*, ...) @printf(i8* getelementptr inbounds ([3 x i8], [3 x i8]* @.str.2, i64 0, i64 0), i32 %194)
  br label %196

196:                                              ; preds = %189
  %197 = load i32, i32* %4, align 4
  %198 = add nsw i32 %197, -1
  store i32 %198, i32* %4, align 4
  br label %186

199:                                              ; preds = %186
  br label %200

200:                                              ; preds = %199, %105
  ret void
}

declare dso_local i32 @__isoc99_scanf(i8*, ...) #1

; Function Attrs: nounwind readonly
declare dso_local i64 @strlen(i8*) #2

declare dso_local i32 @printf(i8*, ...) #1


!llvm.module.flags = !{!0}
!llvm.ident = !{!1}

!0 = !{i32 1, !"wchar_size", i32 4}
!1 = !{!"clang version 10.0.0-4ubuntu1 "}
